; Function Attrs: mustprogress uwtable
define void @_ZN3zmq6pipe_t5flushEv(ptr noundef nonnull align 8 dereferenceable(328) %0) local_unnamed_addr #0 align 2 {
  %2 = getelementptr inbounds nuw i8, ptr %0, i64 152
  %3 = load i32, ptr %2, align 8, !tbaa !105
  %4 = icmp eq i32 %3, 3
  br i1 %4, label %16, label %5

5:                                                ; preds = %1
  %6 = getelementptr inbounds nuw i8, ptr %0, i64 80
  %7 = load ptr, ptr %6, align 8, !tbaa !103
  %.not = icmp eq ptr %7, null
  br i1 %.not, label %16, label %8

8:                                                ; preds = %5
  %9 = load ptr, ptr %7, align 8, !tbaa !9
  %10 = getelementptr inbounds nuw i8, ptr %9, i64 32
  %11 = load ptr, ptr %10, align 8
  %12 = tail call noundef zeroext i1 %11(ptr noundef nonnull align 8 dereferenceable(8) %7)
  br i1 %12, label %16, label %13

13:                                               ; preds = %8
  %14 = getelementptr inbounds nuw i8, ptr %0, i64 136
  %15 = load ptr, ptr %14, align 8, !tbaa !29
  tail call void @_ZN3zmq8object_t18send_activate_readEPNS_6pipe_tE(ptr noundef nonnull align 8 dereferenceable(20) %0, ptr noundef %15)
  br label %16

16:                                               ; preds = %1, %13, %8, %5
  ret void
}